target datalayout = "e-m:e-p270:32:32-p271:32:32-p272:64:64-i64:64-i128:128-f80:128-n8:16:32:64-S128"
target triple = "x86_64-pc-linux-gnu"

%struct.Bbr_ImagePart_t_ = type { ptr, ptr, i32, i16, i16 }
%struct.Bbr_ImageNode_t_ = type { ptr, ptr, ptr, ptr, ptr, ptr }

; Function Attrs: nounwind uwtable
define internal void @Bbr_DeleteParts_rec(ptr noundef %0) #0 {
  %2 = alloca ptr, align 8
  %3 = alloca ptr, align 8
  store ptr %0, ptr %2, align 8, !tbaa !35
  call void @llvm.lifetime.start.p0(i64 8, ptr %3) #6
  %4 = load ptr, ptr %2, align 8, !tbaa !35
  %5 = getelementptr inbounds nuw %struct.Bbr_ImageNode_t_, ptr %4, i32 0, i32 3
  %6 = load ptr, ptr %5, align 8, !tbaa !90
  %7 = icmp ne ptr %6, null
  br i1 %7, label %8, label %12

8:                                                ; preds = %1
  %9 = load ptr, ptr %2, align 8, !tbaa !35
  %10 = getelementptr inbounds nuw %struct.Bbr_ImageNode_t_, ptr %9, i32 0, i32 3
  %11 = load ptr, ptr %10, align 8, !tbaa !90
  call void @Bbr_DeleteParts_rec(ptr noundef %11)
  br label %12

12:                                               ; preds = %8, %1
  %13 = load ptr, ptr %2, align 8, !tbaa !35
  %14 = getelementptr inbounds nuw %struct.Bbr_ImageNode_t_, ptr %13, i32 0, i32 4
  %15 = load ptr, ptr %14, align 8, !tbaa !91
  %16 = icmp ne ptr %15, null
  br i1 %16, label %17, label %21

17:                                               ; preds = %12
  %18 = load ptr, ptr %2, align 8, !tbaa !35
  %19 = getelementptr inbounds nuw %struct.Bbr_ImageNode_t_, ptr %18, i32 0, i32 4
  %20 = load ptr, ptr %19, align 8, !tbaa !91
  call void @Bbr_DeleteParts_rec(ptr noundef %20)
  br label %21

21:                                               ; preds = %17, %12
  %22 = load ptr, ptr %2, align 8, !tbaa !35
  %23 = getelementptr inbounds nuw %struct.Bbr_ImageNode_t_, ptr %22, i32 0, i32 5
  %24 = load ptr, ptr %23, align 8, !tbaa !79
  store ptr %24, ptr %3, align 8, !tbaa !56
  %25 = load ptr, ptr %2, align 8, !tbaa !35
  %26 = getelementptr inbounds nuw %struct.Bbr_ImageNode_t_, ptr %25, i32 0, i32 0
  %27 = load ptr, ptr %26, align 8, !tbaa !77
  %28 = load ptr, ptr %3, align 8, !tbaa !56
  %29 = getelementptr inbounds nuw %struct.Bbr_ImagePart_t_, ptr %28, i32 0, i32 0
  %30 = load ptr, ptr %29, align 8, !tbaa !58
  call void @Cudd_RecursiveDeref(ptr noundef %27, ptr noundef %30)
  %31 = load ptr, ptr %2, align 8, !tbaa !35
  %32 = getelementptr inbounds nuw %struct.Bbr_ImageNode_t_, ptr %31, i32 0, i32 0
  %33 = load ptr, ptr %32, align 8, !tbaa !77
  %34 = load ptr, ptr %3, align 8, !tbaa !56
  %35 = getelementptr inbounds nuw %struct.Bbr_ImagePart_t_, ptr %34, i32 0, i32 1
  %36 = load ptr, ptr %35, align 8, !tbaa !61
  call void @Cudd_RecursiveDeref(ptr noundef %33, ptr noundef %36)
  %37 = load ptr, ptr %2, align 8, !tbaa !35
  %38 = getelementptr inbounds nuw %struct.Bbr_ImageNode_t_, ptr %37, i32 0, i32 5
  %39 = load ptr, ptr %38, align 8, !tbaa !79
  %40 = icmp ne ptr %39, null
  br i1 %40, label %41, label %47

41:                                               ; preds = %21
  %42 = load ptr, ptr %2, align 8, !tbaa !35
  %43 = getelementptr inbounds nuw %struct.Bbr_ImageNode_t_, ptr %42, i32 0, i32 5
  %44 = load ptr, ptr %43, align 8, !tbaa !79
  call void @free(ptr noundef %44) #6
  %45 = load ptr, ptr %2, align 8, !tbaa !35
  %46 = getelementptr inbounds nuw %struct.Bbr_ImageNode_t_, ptr %45, i32 0, i32 5
  store ptr null, ptr %46, align 8, !tbaa !79
  br label %48

47:                                               ; preds = %21
  br label %48

48:                                               ; preds = %47, %41
  call void @llvm.lifetime.end.p0(i64 8, ptr %3) #6
  ret void
}